Certificate:
    Data:
        Version: 3 (0x2)
        Serial Number: 0 (0x0)
        Signature Algorithm: sha256WithRSAEncryption
        Issuer: C=EU, ST=Spain, L=Arrasate, O=Mondragon Unibertsitatea, OU=Mondragon Unibertsitatea, CN=popbl/emailAddress=user@user.com
        Validity
            Not Before: Jan 15 07:42:54 2020 GMT
            Not After : Jan 14 07:42:54 2021 GMT
        Subject: C=EU, ST=Spain, O=Mondragon Unibertsitatea, OU=Mondragon Unibertsitatea, CN=popbl/emailAddress=user@user.com
        Subject Public Key Info:
            Public Key Algorithm: rsaEncryption
                RSA Public-Key: (4096 bit)
                Modulus:
                    00:a4:fe:e6:2e:ba:0a:c2:99:9c:15:fb:01:6b:a3:
                    94:23:01:b8:cf:20:ec:fd:c4:d9:ef:75:95:32:36:
                    68:00:82:02:50:d9:46:c4:ab:39:80:30:02:ba:9d:
                    bf:34:54:46:5b:c1:73:1a:57:a9:6f:c5:70:b2:02:
                    f2:bc:77:1f:9f:1a:b3:a5:ba:0a:b2:21:12:40:63:
                    4a:66:26:a5:bc:30:d2:56:70:6d:98:eb:93:f5:aa:
                    57:74:b3:52:4d:8c:06:c3:eb:19:fe:57:d0:07:96:
                    59:a6:10:e9:40:7f:c7:04:94:94:f5:95:ac:46:7c:
                    38:4f:e7:82:7f:10:69:4d:89:d1:c0:d3:ce:3b:b5:
                    e6:f1:f4:12:a2:8a:38:af:b7:d8:97:83:08:b8:b3:
                    02:fe:5a:8b:9d:fd:31:35:1a:8b:a6:ab:66:24:a6:
                    d6:2a:98:6b:71:6d:1e:56:00:44:4e:14:85:4e:b6:
                    3b:a1:c9:7f:ac:a4:1c:bd:8f:35:4a:ee:93:2d:47:
                    02:0e:51:77:4f:34:fc:38:13:fc:75:9b:53:51:db:
                    a2:34:83:c0:35:64:7f:17:89:ec:b1:b3:6b:a9:7b:
                    47:38:7c:c2:7d:7a:e6:4b:2b:ce:e6:f7:f1:ea:2c:
                    98:16:9c:43:a9:17:9d:f7:48:68:8b:c4:62:a0:68:
                    c2:dd:1f:19:4b:e9:2e:e9:4e:5b:d7:a2:5e:9b:89:
                    c1:5c:81:34:15:74:a4:30:17:bc:b8:91:2e:eb:22:
                    e7:9e:66:cc:68:ce:40:10:30:81:fa:e2:b4:f5:2b:
                    6f:eb:cc:26:35:b5:99:10:05:8f:98:90:6c:92:09:
                    8a:9e:ff:aa:ba:3f:8e:a2:81:94:04:87:71:7c:84:
                    03:a0:e3:f5:6b:3a:37:90:a4:9d:ee:ff:e4:08:6e:
                    e4:44:82:fd:19:9e:ec:bc:2f:ad:bd:59:d1:fb:0e:
                    32:2e:bd:0b:fd:21:bf:e7:9b:25:d9:d0:1b:f8:b0:
                    54:37:78:6f:0b:55:be:18:2a:5a:3a:49:c0:0c:59:
                    26:06:0c:ae:08:63:fe:e6:3a:2b:34:c8:5f:88:79:
                    e4:bd:4a:d8:47:f1:65:90:70:69:f5:84:5f:7d:76:
                    b4:f5:68:de:2f:4a:aa:90:c0:8c:e8:23:2e:42:eb:
                    6e:d8:e9:74:ef:1b:41:0b:2d:e5:1a:31:dc:b6:34:
                    dd:37:93:a7:36:f8:7a:3d:3c:a8:4a:f4:fa:58:f7:
                    ae:12:2a:fa:7c:54:25:0a:3e:68:4a:7d:16:85:87:
                    18:d6:aa:a8:24:4b:2f:6e:63:ac:91:9f:6c:ed:71:
                    00:07:97:3a:54:a2:71:a7:f8:20:46:31:4f:05:f3:
                    22:66:b1
                Exponent: 65537 (0x10001)
        X509v3 extensions:
            X509v3 Basic Constraints: 
                CA:FALSE
            Netscape Comment: 
                OpenSSL Generated Certificate
            X509v3 Subject Key Identifier: 
                51:89:BB:0C:1B:13:4F:F4:69:B4:A4:88:D6:D0:E2:A8:6F:E9:E3:23
            X509v3 Authority Key Identifier: 
                keyid:F0:8B:3C:EC:D0:AF:A0:54:48:CB:00:D2:12:9D:6C:64:B9:D4:16:1C

    Signature Algorithm: sha256WithRSAEncryption
         9e:6d:e7:e1:84:d9:5a:87:e5:af:5e:66:23:a1:37:15:bb:6c:
         c0:b1:32:80:a1:21:0c:90:13:3f:70:61:b3:a3:2b:1e:c6:98:
         cf:8f:43:86:65:aa:d1:bb:fb:04:44:52:7d:cf:21:52:77:73:
         09:0c:ef:fb:89:0e:50:cb:78:24:33:f0:e6:99:1e:8b:72:8f:
         3a:bd:0e:4a:05:1f:57:19:03:cf:2e:3c:8c:50:b5:14:c8:e1:
         2b:9d:0a:6d:74:5d:02:76:04:4a:8d:ce:a5:6d:f5:18:e6:b0:
         c6:a6:25:04:92:88:5f:19:b8:2e:d1:0d:88:d7:42:68:10:e7:
         af:2c:2e:11:a6:fe:62:6e:7a:de:d2:c6:1f:31:fb:e8:84:c4:
         60:32:39:77:a9:56:e7:33:d4:07:af:d9:3f:8d:a0:c4:a4:99:
         05:a8:42:e5:fe:bf:5a:35:ef:94:05:3e:61:37:41:74:99:2a:
         23:36:a8:3a:f6:f7:dc:6b:0e:ee:8a:9b:71:ff:5e:65:fc:c2:
         98:b1:c9:cf:f9:12:5d:d5:c2:e4:79:e0:88:fc:2b:ea:b6:19:
         ba:30:c6:6d:2d:73:ed:07:ac:3d:e4:d5:97:5a:83:3c:5f:3f:
         07:f1:8f:4a:b6:0a:cd:de:fd:27:b1:e9:16:de:52:73:9e:70:
         00:ae:50:a6
-----BEGIN CERTIFICATE-----
MIIFLTCCBBWgAwIBAgIBADANBgkqhkiG9w0BAQsFADCBpDELMAkGA1UEBhMCRVUx
DjAMBgNVBAgMBVNwYWluMREwDwYDVQQHDAhBcnJhc2F0ZTEhMB8GA1UECgwYTW9u
ZHJhZ29uIFVuaWJlcnRzaXRhdGVhMSEwHwYDVQQLDBhNb25kcmFnb24gVW5pYmVy
dHNpdGF0ZWExDjAMBgNVBAMMBXBvcGJsMRwwGgYJKoZIhvcNAQkBFg11c2VyQHVz
ZXIuY29tMB4XDTIwMDExNTA3NDI1NFoXDTIxMDExNDA3NDI1NFowgZExCzAJBgNV
BAYTAkVVMQ4wDAYDVQQIDAVTcGFpbjEhMB8GA1UECgwYTW9uZHJhZ29uIFVuaWJl
cnRzaXRhdGVhMSEwHwYDVQQLDBhNb25kcmFnb24gVW5pYmVydHNpdGF0ZWExDjAM
BgNVBAMMBXBvcGJsMRwwGgYJKoZIhvcNAQkBFg11c2VyQHVzZXIuY29tMIICIjAN
BgkqhkiG9w0BAQEFAAOCAg8AMIICCgKCAgEApP7mLroKwpmcFfsBa6OUIwG4zyDs
/cTZ73WVMjZoAIICUNlGxKs5gDACup2/NFRGW8FzGlepb8VwsgLyvHcfnxqzpboK
siESQGNKZialvDDSVnBtmOuT9apXdLNSTYwGw+sZ/lfQB5ZZphDpQH/HBJSU9ZWs
Rnw4T+eCfxBpTYnRwNPOO7Xm8fQSooo4r7fYl4MIuLMC/lqLnf0xNRqLpqtmJKbW
KphrcW0eVgBEThSFTrY7ocl/rKQcvY81Su6TLUcCDlF3TzT8OBP8dZtTUduiNIPA
NWR/F4nssbNrqXtHOHzCfXrmSyvO5vfx6iyYFpxDqRed90hoi8RioGjC3R8ZS+ku
6U5b16Jem4nBXIE0FXSkMBe8uJEu6yLnnmbMaM5AEDCB+uK09Stv68wmNbWZEAWP
mJBskgmKnv+quj+OooGUBIdxfIQDoOP1azo3kKSd7v/kCG7kRIL9GZ7svC+tvVnR
+w4yLr0L/SG/55sl2dAb+LBUN3hvC1W+GCpaOknADFkmBgyuCGP+5jorNMhfiHnk
vUrYR/FlkHBp9YRffXa09WjeL0qqkMCM6CMuQutu2Ol07xtBCy3lGjHctjTdN5On
Nvh6PTyoSvT6WPeuEir6fFQlCj5oSn0WhYcY1qqoJEsvbmOskZ9s7XEAB5c6VKJx
p/ggRjFPBfMiZrECAwEAAaN7MHkwCQYDVR0TBAIwADAsBglghkgBhvhCAQ0EHxYd
T3BlblNTTCBHZW5lcmF0ZWQgQ2VydGlmaWNhdGUwHQYDVR0OBBYEFFGJuwwbE0/0
abSkiNbQ4qhv6eMjMB8GA1UdIwQYMBaAFPCLPOzQr6BUSMsA0hKdbGS51BYcMA0G
CSqGSIb3DQEBCwUAA4IBAQCebefhhNlah+WvXmYjoTcVu2zAsTKAoSEMkBM/cGGz
oysexpjPj0OGZarRu/sERFJ9zyFSd3MJDO/7iQ5Qy3gkM/DmmR6Lco86vQ5KBR9X
GQPPLjyMULUUyOErnQptdF0CdgRKjc6lbfUY5rDGpiUEkohfGbgu0Q2I10JoEOev
LC4Rpv5ibnre0sYfMfvohMRgMjl3qVbnM9QHr9k/jaDEpJkFqELl/r9aNe+UBT5h
N0F0mSojNqg69vfcaw7uiptx/15l/MKYscnP+RJd1cLkeeCI/Cvqthm6MMZtLXPt
B6w95NWXWoM8Xz8H8Y9KtgrN3v0nsekW3lJznnAArlCm
-----END CERTIFICATE-----
