Certificate:
    Data:
        Version: 3 (0x2)
        Serial Number: 4096 (0x1000)
        Signature Algorithm: sha256WithRSAEncryption
        Issuer: C=EU, ST=Spain, L=Arrasate, O=Mondragon, OU=Mondragon, CN=popbl/emailAddress=user@user.com
        Validity
            Not Before: Jan 15 08:33:15 2020 GMT
            Not After : Jan 14 08:33:15 2021 GMT
        Subject: C=EU, ST=Spain, O=Mondragon, OU=Mondragon, CN=popbl/emailAddress=user@user.com
        Subject Public Key Info:
            Public Key Algorithm: rsaEncryption
                RSA Public-Key: (4096 bit)
                Modulus:
                    00:db:be:1b:4a:e7:fb:f4:5c:91:60:64:65:8d:d4:
                    72:71:d1:16:bc:eb:af:d2:8b:62:9c:f2:18:e9:5d:
                    97:00:eb:cd:9d:ad:39:50:07:fc:e3:d7:09:17:8b:
                    73:a4:e2:8c:75:58:ad:d1:9d:23:cb:55:72:fb:f1:
                    e5:40:50:27:bf:a9:dd:60:07:32:9f:64:3f:02:88:
                    a7:fd:11:66:c2:93:62:8d:37:c7:66:4d:e1:8a:35:
                    cd:a9:c4:1b:74:70:d1:93:f9:89:65:6d:6e:b9:bf:
                    35:9f:2b:48:23:af:72:8c:f9:be:0b:ac:19:da:13:
                    ef:07:d7:d4:cc:9e:d9:91:49:75:b1:a3:69:f6:69:
                    2e:41:b9:dc:3f:c2:45:91:ed:11:1c:ae:c9:16:09:
                    fd:d4:e2:b0:73:76:0b:7f:8b:cb:18:aa:28:b4:40:
                    2e:c1:27:58:1f:bb:ff:c7:84:6f:74:52:3c:b9:b7:
                    96:48:44:df:de:dd:ae:a4:bc:3b:8d:c9:ad:ae:7d:
                    ba:8e:a0:64:95:24:57:b8:bf:3f:28:c7:a5:7d:3e:
                    8a:e9:d3:f5:5d:d7:65:d6:df:6a:63:bb:7b:ed:12:
                    4d:3e:16:bc:7f:92:39:e1:77:9e:f3:3e:ee:88:09:
                    01:4c:e0:3c:9c:a4:4a:4f:55:97:af:01:e1:b7:b5:
                    af:96:1c:04:4f:53:5a:9e:0c:ec:ab:bf:17:95:49:
                    e7:ba:20:cc:59:d2:4b:82:b4:ab:c2:f9:c7:43:b1:
                    38:63:8e:44:f1:40:8c:f0:9c:e3:da:fb:d0:74:8a:
                    88:49:bb:49:35:0d:e1:f6:6a:db:09:33:fa:bf:9e:
                    16:bc:ab:91:d0:cf:69:3e:6a:da:51:2c:e0:e3:b2:
                    53:03:5b:54:a8:ae:51:b3:8d:22:f3:be:f0:54:83:
                    2b:67:31:2c:05:2f:06:58:5b:c1:09:e0:08:3d:91:
                    ff:e4:99:e8:17:7c:ea:80:20:a5:72:0c:40:02:6d:
                    be:dd:5c:78:e1:31:b4:38:31:8b:34:56:5c:80:b5:
                    d9:df:ed:6f:31:cb:fe:b8:3e:f3:07:9e:20:b1:37:
                    dd:6d:01:3b:9d:27:b0:90:86:37:ba:d8:4d:af:04:
                    fb:ae:00:4b:26:5e:47:66:6e:58:82:66:bc:5c:a7:
                    03:a9:77:33:29:ff:a6:41:df:e4:9f:08:e6:cc:67:
                    e2:f0:0a:4d:31:ba:f7:c8:14:a8:ff:b7:f4:e8:b7:
                    12:65:f5:a6:f5:da:0c:81:94:19:c2:11:5f:42:e4:
                    67:dc:d3:b5:4d:61:d4:76:63:9c:a9:50:88:e6:28:
                    f3:1e:10:c0:20:44:ee:af:71:58:f2:68:a9:9e:c0:
                    df:38:3b
                Exponent: 65537 (0x10001)
        X509v3 extensions:
            X509v3 Basic Constraints: 
                CA:FALSE
            Netscape Comment: 
                OpenSSL Generated Certificate
            X509v3 Subject Key Identifier: 
                72:3B:B3:85:19:7C:DF:96:D0:E4:7E:A6:5D:0E:25:78:BD:51:62:A4
            X509v3 Authority Key Identifier: 
                keyid:37:A0:20:7B:D9:7F:F6:03:6C:C3:4A:F8:74:55:53:AA:CF:6C:D6:17

    Signature Algorithm: sha256WithRSAEncryption
         c2:f1:a2:ed:43:47:b1:18:d5:25:ab:96:cf:40:5a:94:67:cc:
         aa:c9:d6:79:41:de:aa:72:05:59:36:10:4d:f6:a3:e2:33:79:
         d5:47:f3:99:e9:89:e5:68:c0:45:4b:02:a6:09:7b:a6:8c:8a:
         7b:ea:92:13:4c:45:f1:7e:03:11:40:10:72:08:a3:b4:bf:63:
         83:a0:34:d7:c6:c1:76:3f:7d:8a:0a:c8:da:53:94:82:eb:ba:
         22:2d:9f:87:ed:31:98:bc:17:ee:b3:9c:93:41:67:1d:cf:e4:
         41:8a:79:a5:37:27:2a:b1:ce:7e:bb:03:45:8f:f4:de:56:28:
         6f:80:f9:14:83:a8:f5:4c:ca:e2:c9:06:d8:77:65:21:e5:b9:
         77:9d:6e:9a:34:89:23:33:57:5e:c8:4c:ab:02:14:f5:df:5c:
         2e:67:88:d4:a8:96:ab:a2:19:d1:c6:13:d7:fb:d4:63:45:b9:
         f1:cd:68:02:04:a2:6b:55:57:cf:5d:38:fd:0b:9b:2a:fc:95:
         59:11:db:11:d5:4d:c2:b9:75:df:ce:76:e7:0c:13:3a:f1:09:
         17:5c:a6:40:82:ed:f3:4b:b6:73:a3:84:d4:66:34:f6:93:f0:
         76:a6:0b:01:a7:8e:30:84:85:ff:43:c1:b6:2e:f4:2f:4f:f8:
         b7:37:82:e7
-----BEGIN CERTIFICATE-----
MIIE8TCCA9mgAwIBAgICEAAwDQYJKoZIhvcNAQELBQAwgYYxCzAJBgNVBAYTAkVV
MQ4wDAYDVQQIDAVTcGFpbjERMA8GA1UEBwwIQXJyYXNhdGUxEjAQBgNVBAoMCU1v
bmRyYWdvbjESMBAGA1UECwwJTW9uZHJhZ29uMQ4wDAYDVQQDDAVwb3BibDEcMBoG
CSqGSIb3DQEJARYNdXNlckB1c2VyLmNvbTAeFw0yMDAxMTUwODMzMTVaFw0yMTAx
MTQwODMzMTVaMHMxCzAJBgNVBAYTAkVVMQ4wDAYDVQQIDAVTcGFpbjESMBAGA1UE
CgwJTW9uZHJhZ29uMRIwEAYDVQQLDAlNb25kcmFnb24xDjAMBgNVBAMMBXBvcGJs
MRwwGgYJKoZIhvcNAQkBFg11c2VyQHVzZXIuY29tMIICIjANBgkqhkiG9w0BAQEF
AAOCAg8AMIICCgKCAgEA274bSuf79FyRYGRljdRycdEWvOuv0otinPIY6V2XAOvN
na05UAf849cJF4tzpOKMdVit0Z0jy1Vy+/HlQFAnv6ndYAcyn2Q/Aoin/RFmwpNi
jTfHZk3hijXNqcQbdHDRk/mJZW1uub81nytII69yjPm+C6wZ2hPvB9fUzJ7ZkUl1
saNp9mkuQbncP8JFke0RHK7JFgn91OKwc3YLf4vLGKootEAuwSdYH7v/x4RvdFI8
ubeWSETf3t2upLw7jcmtrn26jqBklSRXuL8/KMelfT6K6dP1Xddl1t9qY7t77RJN
Pha8f5I54Xee8z7uiAkBTOA8nKRKT1WXrwHht7WvlhwET1Nangzsq78XlUnnuiDM
WdJLgrSrwvnHQ7E4Y45E8UCM8Jzj2vvQdIqISbtJNQ3h9mrbCTP6v54WvKuR0M9p
PmraUSzg47JTA1tUqK5Rs40i877wVIMrZzEsBS8GWFvBCeAIPZH/5JnoF3zqgCCl
cgxAAm2+3Vx44TG0ODGLNFZcgLXZ3+1vMcv+uD7zB54gsTfdbQE7nSewkIY3uthN
rwT7rgBLJl5HZm5Ygma8XKcDqXczKf+mQd/knwjmzGfi8ApNMbr3yBSo/7f06LcS
ZfWm9doMgZQZwhFfQuRn3NO1TWHUdmOcqVCI5ijzHhDAIETur3FY8mipnsDfODsC
AwEAAaN7MHkwCQYDVR0TBAIwADAsBglghkgBhvhCAQ0EHxYdT3BlblNTTCBHZW5l
cmF0ZWQgQ2VydGlmaWNhdGUwHQYDVR0OBBYEFHI7s4UZfN+W0OR+pl0OJXi9UWKk
MB8GA1UdIwQYMBaAFDegIHvZf/YDbMNK+HRVU6rPbNYXMA0GCSqGSIb3DQEBCwUA
A4IBAQDC8aLtQ0exGNUlq5bPQFqUZ8yqydZ5Qd6qcgVZNhBN9qPiM3nVR/OZ6Ynl
aMBFSwKmCXumjIp76pITTEXxfgMRQBByCKO0v2ODoDTXxsF2P32KCsjaU5SC67oi
LZ+H7TGYvBfus5yTQWcdz+RBinmlNycqsc5+uwNFj/TeVihvgPkUg6j1TMriyQbY
d2Uh5bl3nW6aNIkjM1deyEyrAhT131wuZ4jUqJarohnRxhPX+9RjRbnxzWgCBKJr
VVfPXTj9C5sq/JVZEdsR1U3CuXXfznbnDBM68QkXXKZAgu3zS7Zzo4TUZjT2k/B2
pgsBp44whIX/Q8G2LvQvT/i3N4Ln
-----END CERTIFICATE-----
