Certificate:
    Data:
        Version: 3 (0x2)
        Serial Number: 4097 (0x1001)
        Signature Algorithm: sha256WithRSAEncryption
        Issuer: C=EU, ST=Spain, L=Arrasate, O=Mondragon, OU=Mondragon, CN=popbl/emailAddress=user@user.com
        Validity
            Not Before: Jan 15 11:05:43 2020 GMT
            Not After : Jan 14 11:05:43 2021 GMT
        Subject: C=EU, ST=Spain, O=Mondragon, OU=Mondragon, CN=popbl/emailAddress=user1@user1.com
        Subject Public Key Info:
            Public Key Algorithm: rsaEncryption
                RSA Public-Key: (4096 bit)
                Modulus:
                    00:d5:a6:c0:38:02:8c:f4:8c:4a:d9:8f:c0:4f:a2:
                    f2:ce:00:a1:6e:c6:6c:f8:78:13:96:4b:8b:62:4e:
                    f5:bc:22:74:b6:cc:39:cd:ec:20:08:6a:1a:61:ee:
                    dd:6c:de:3e:52:09:59:d7:7f:26:d3:24:71:a5:d2:
                    8c:7b:a4:8e:8b:3d:10:aa:52:f7:93:b6:82:8a:25:
                    b4:bd:06:af:ef:70:fa:57:a3:3c:89:af:9e:32:80:
                    2f:c3:1c:91:65:bc:a2:63:4a:0b:19:fc:5b:17:a9:
                    37:90:7b:ff:a8:e8:74:6e:30:d5:10:55:28:c6:43:
                    49:42:7e:c4:81:cd:52:6a:c8:3e:bd:5e:3a:f0:90:
                    aa:86:53:00:86:d4:7f:f9:41:2e:dd:4f:b6:94:3a:
                    7b:64:0b:5c:62:36:be:a3:9e:32:29:3c:3b:76:e3:
                    9e:cf:25:1f:c4:78:93:7a:70:29:d3:1b:1d:7d:63:
                    cb:18:44:5d:0e:8e:0d:77:cd:ea:c8:d2:23:a7:db:
                    75:61:4f:ee:27:15:d3:19:32:4c:76:15:38:f9:25:
                    b3:0c:0d:45:d2:d2:ca:b5:71:33:d7:88:08:48:0d:
                    51:4f:d2:c7:e8:05:87:e8:e0:ac:2d:ae:b0:8d:19:
                    bb:00:d1:74:b8:bc:38:d6:35:d2:a2:0b:1f:28:ef:
                    89:3e:b4:eb:61:62:08:ef:32:55:67:28:a9:a6:31:
                    9f:b1:7c:82:69:a8:ba:41:93:49:2a:bc:12:2d:a7:
                    7d:05:5f:26:d8:8c:80:50:4a:ed:be:b7:ed:71:15:
                    31:5c:0b:82:fe:4d:50:b2:1a:27:65:ce:5b:fd:3f:
                    25:81:0b:49:1d:9e:b1:17:b9:23:22:b2:5e:7b:31:
                    6d:6b:3e:73:7b:84:8c:39:fe:ad:ce:1b:42:71:2d:
                    57:d3:b8:26:63:81:1e:4c:e2:25:9e:ae:54:80:e2:
                    1d:7d:e1:87:dd:2e:ab:0f:88:54:8b:ed:cf:c6:3c:
                    35:32:83:88:e3:dc:da:6f:c4:e1:6b:17:b0:5e:f4:
                    b9:d9:9a:9b:de:d2:5e:62:54:49:6e:97:7d:a3:3d:
                    2a:e9:d7:b1:95:4d:7f:c7:e2:a9:43:7d:d6:da:1f:
                    49:9f:87:0a:94:59:26:8e:cb:96:b4:3e:d4:c1:c9:
                    2e:a0:ef:65:69:6e:d8:29:a3:06:0e:6d:d8:ab:8e:
                    81:e7:ed:37:bb:2a:45:d2:17:88:c8:be:69:5c:c2:
                    ef:e6:46:48:6d:62:37:d7:cf:9e:e3:05:89:67:78:
                    2f:ab:dd:70:40:dd:40:8f:47:fa:8e:4f:d9:75:25:
                    68:db:70:5a:99:ac:ff:34:6f:6a:19:f6:65:99:06:
                    28:ed:75
                Exponent: 65537 (0x10001)
        X509v3 extensions:
            X509v3 Basic Constraints: 
                CA:FALSE
            Netscape Comment: 
                OpenSSL Generated Certificate
            X509v3 Subject Key Identifier: 
                3F:3D:0C:08:5B:EC:98:09:F6:EB:07:21:CA:2C:81:D9:29:6F:EE:7E
            X509v3 Authority Key Identifier: 
                keyid:37:A0:20:7B:D9:7F:F6:03:6C:C3:4A:F8:74:55:53:AA:CF:6C:D6:17

    Signature Algorithm: sha256WithRSAEncryption
         41:13:f1:da:b3:04:5c:44:04:f6:17:5e:3b:21:c7:9d:2f:50:
         3b:97:58:40:e0:22:29:88:dc:a4:31:1b:f7:1a:a3:a7:92:b7:
         96:a2:3a:9a:c4:fa:32:2d:38:69:07:37:55:f2:e9:9f:11:2b:
         fc:42:23:15:c6:7a:3f:d7:f6:f1:99:ee:cb:7b:8e:c3:7a:4f:
         19:2e:11:5c:aa:84:da:37:09:fe:b3:36:04:f6:b7:2b:80:f3:
         ab:ac:e5:7c:07:39:e8:cf:41:ac:f7:84:0a:cf:de:43:df:2c:
         28:d0:c5:84:3a:5f:37:49:df:7d:0e:f8:0b:9f:ea:95:ca:32:
         14:0b:61:dc:dc:91:98:1d:92:3d:1b:19:80:70:f2:f1:6b:83:
         c2:1b:95:77:01:ad:06:a7:30:9c:03:ea:ef:8c:63:a4:43:f8:
         03:80:f1:c2:45:20:94:4c:06:f7:30:dc:3e:ae:c2:3d:4e:4c:
         83:13:4c:b4:05:80:7d:31:71:94:a8:97:17:44:d4:5a:7f:e6:
         98:86:12:e8:22:4a:23:9f:70:b5:dc:2e:36:82:61:bf:44:a8:
         d2:b9:2c:29:a2:e5:24:fa:33:e8:1b:e6:81:5a:30:97:39:e1:
         a9:5c:df:be:cd:69:bb:81:77:44:34:e5:85:ce:1c:75:4c:f1:
         c7:12:aa:05
-----BEGIN CERTIFICATE-----
MIIE8zCCA9ugAwIBAgICEAEwDQYJKoZIhvcNAQELBQAwgYYxCzAJBgNVBAYTAkVV
MQ4wDAYDVQQIDAVTcGFpbjERMA8GA1UEBwwIQXJyYXNhdGUxEjAQBgNVBAoMCU1v
bmRyYWdvbjESMBAGA1UECwwJTW9uZHJhZ29uMQ4wDAYDVQQDDAVwb3BibDEcMBoG
CSqGSIb3DQEJARYNdXNlckB1c2VyLmNvbTAeFw0yMDAxMTUxMTA1NDNaFw0yMTAx
MTQxMTA1NDNaMHUxCzAJBgNVBAYTAkVVMQ4wDAYDVQQIDAVTcGFpbjESMBAGA1UE
CgwJTW9uZHJhZ29uMRIwEAYDVQQLDAlNb25kcmFnb24xDjAMBgNVBAMMBXBvcGJs
MR4wHAYJKoZIhvcNAQkBFg91c2VyMUB1c2VyMS5jb20wggIiMA0GCSqGSIb3DQEB
AQUAA4ICDwAwggIKAoICAQDVpsA4Aoz0jErZj8BPovLOAKFuxmz4eBOWS4tiTvW8
InS2zDnN7CAIahph7t1s3j5SCVnXfybTJHGl0ox7pI6LPRCqUveTtoKKJbS9Bq/v
cPpXozyJr54ygC/DHJFlvKJjSgsZ/FsXqTeQe/+o6HRuMNUQVSjGQ0lCfsSBzVJq
yD69XjrwkKqGUwCG1H/5QS7dT7aUOntkC1xiNr6jnjIpPDt2457PJR/EeJN6cCnT
Gx19Y8sYRF0Ojg13zerI0iOn23VhT+4nFdMZMkx2FTj5JbMMDUXS0sq1cTPXiAhI
DVFP0sfoBYfo4KwtrrCNGbsA0XS4vDjWNdKiCx8o74k+tOthYgjvMlVnKKmmMZ+x
fIJpqLpBk0kqvBItp30FXybYjIBQSu2+t+1xFTFcC4L+TVCyGidlzlv9PyWBC0kd
nrEXuSMisl57MW1rPnN7hIw5/q3OG0JxLVfTuCZjgR5M4iWerlSA4h194YfdLqsP
iFSL7c/GPDUyg4jj3NpvxOFrF7Be9LnZmpve0l5iVElul32jPSrp17GVTX/H4qlD
fdbaH0mfhwqUWSaOy5a0PtTByS6g72VpbtgpowYObdirjoHn7Te7KkXSF4jIvmlc
wu/mRkhtYjfXz57jBYlneC+r3XBA3UCPR/qOT9l1JWjbcFqZrP80b2oZ9mWZBijt
dQIDAQABo3sweTAJBgNVHRMEAjAAMCwGCWCGSAGG+EIBDQQfFh1PcGVuU1NMIEdl
bmVyYXRlZCBDZXJ0aWZpY2F0ZTAdBgNVHQ4EFgQUPz0MCFvsmAn26wchyiyB2Slv
7n4wHwYDVR0jBBgwFoAUN6Age9l/9gNsw0r4dFVTqs9s1hcwDQYJKoZIhvcNAQEL
BQADggEBAEET8dqzBFxEBPYXXjshx50vUDuXWEDgIimI3KQxG/cao6eSt5aiOprE
+jItOGkHN1Xy6Z8RK/xCIxXGej/X9vGZ7st7jsN6TxkuEVyqhNo3Cf6zNgT2tyuA
86us5XwHOejPQaz3hArP3kPfLCjQxYQ6XzdJ330O+Auf6pXKMhQLYdzckZgdkj0b
GYBw8vFrg8IblXcBrQanMJwD6u+MY6RD+AOA8cJFIJRMBvcw3D6uwj1OTIMTTLQF
gH0xcZSolxdE1Fp/5piGEugiSiOfcLXcLjaCYb9EqNK5LCmi5ST6M+gb5oFaMJc5
4alc377NabuBd0Q05YXOHHVM8ccSqgU=
-----END CERTIFICATE-----
